; Function Attrs: mustprogress uwtable
define dso_local noundef nonnull ptr @_ZNK18ExpressionVariable5cloneEv(ptr nocapture noundef nonnull readonly align 8 dereferenceable(40) %0) unnamed_addr #3 align 2 personality ptr @__gxx_personality_v0 {
  %2 = tail call noalias noundef nonnull dereferenceable(40) ptr @_Znwm(i64 noundef 40) #15
  invoke void @_ZN10ExpressionC2E9eTermType(ptr noundef nonnull align 8 dereferenceable(24) %2, i32 noundef 1)
          to label %3 unwind label %7

3:                                                ; preds = %1
  store ptr getelementptr inbounds ({ [24 x ptr] }, ptr @_ZTV18ExpressionVariable, i64 0, i32 0, i64 2), ptr %2, align 8
  %4 = getelementptr inbounds i8, ptr %2, i64 24
  %5 = getelementptr inbounds i8, ptr %0, i64 24
  %6 = load <2 x ptr>, ptr %5, align 8
  store <2 x ptr> %6, ptr %4, align 8
  ret ptr %2

7:                                                ; preds = %1
  %8 = landingpad { ptr, i32 }
          cleanup
  tail call void @_ZdlPv(ptr noundef nonnull %2) #16
  resume { ptr, i32 } %8
}